; Function Attrs: mustprogress uwtable
define noundef zeroext i1 @_ZN5Yosys3AST7AstNode13mem2reg_checkERNS_7hashlib4poolIPS1_NS2_8hash_opsIS4_EEEE(ptr noundef nonnull align 8 dereferenceable(284) %0, ptr noundef nonnull align 8 dereferenceable(49) %1) local_unnamed_addr #3 align 2 {
  %3 = getelementptr inbounds nuw i8, ptr %0, i64 4
  %4 = load i32, ptr %3, align 4, !tbaa !49
  %.not = icmp eq i32 %4, 19
  br i1 %.not, label %5, label %30

5:                                                ; preds = %2
  %6 = getelementptr inbounds nuw i8, ptr %0, i64 216
  %7 = load ptr, ptr %6, align 8, !tbaa !177
  %.not3 = icmp eq ptr %7, null
  br i1 %.not3, label %30, label %8

8:                                                ; preds = %5
  %9 = tail call noundef i32 @_ZNK5Yosys7hashlib4poolIPNS_3AST7AstNodeENS0_8hash_opsIS4_EEE5countERKS4_(ptr noundef nonnull align 8 dereferenceable(49) %1, ptr noundef nonnull align 8 dereferenceable(8) %6)
  %.not4 = icmp eq i32 %9, 0
  br i1 %.not4, label %30, label %10

10:                                               ; preds = %8
  %11 = getelementptr inbounds nuw i8, ptr %0, i64 8
  %12 = load ptr, ptr %11, align 8, !tbaa !50
  %13 = getelementptr inbounds nuw i8, ptr %0, i64 16
  %14 = load ptr, ptr %13, align 8, !tbaa !50
  %15 = icmp eq ptr %12, %14
  br i1 %15, label %29, label %16

16:                                               ; preds = %10
  %17 = load ptr, ptr %12, align 8, !tbaa !51
  %18 = getelementptr inbounds nuw i8, ptr %17, i64 4
  %19 = load i32, ptr %18, align 4, !tbaa !49
  %.not5 = icmp eq i32 %19, 14
  br i1 %.not5, label %20, label %29

20:                                               ; preds = %16
  %21 = getelementptr inbounds nuw i8, ptr %17, i64 8
  %22 = getelementptr inbounds nuw i8, ptr %17, i64 16
  %23 = load ptr, ptr %22, align 8, !tbaa !52
  %24 = load ptr, ptr %21, align 8, !tbaa !53
  %25 = ptrtoint ptr %23 to i64
  %26 = ptrtoint ptr %24 to i64
  %27 = sub i64 %25, %26
  %28 = and i64 %27, 34359738360
  %.not6 = icmp eq i64 %28, 8
  br i1 %.not6, label %30, label %29

29:                                               ; preds = %20, %16, %10
  tail call void (ptr, ptr, ...) @_ZNK5Yosys3AST7AstNode11input_errorEPKcz(ptr noundef nonnull align 8 dereferenceable(284) %0, ptr noundef nonnull @.str.220) #39
  unreachable

30:                                               ; preds = %20, %2, %5, %8
  %.0 = phi i1 [ false, %8 ], [ false, %5 ], [ false, %2 ], [ true, %20 ]
  ret i1 %.0
}